; Function Attrs: mustprogress nounwind uwtable
define noundef nonnull align 8 dereferenceable(8) ptr @_ZN4LIEF3DEXlsERSoRKNS0_7MapItemE(ptr noundef nonnull returned align 8 dereferenceable(8) %0, ptr noundef nonnull readonly align 8 captures(none) dereferenceable(20) %1) local_unnamed_addr #0 {
  %3 = getelementptr inbounds nuw i8, ptr %1, i64 8
  %4 = load i16, ptr %3, align 8, !tbaa !6
  %5 = tail call noundef ptr @_ZN4LIEF3DEX9to_stringENS0_7MapItem5TYPESE(i16 noundef zeroext %4) #7
  %.not.i = icmp eq ptr %5, null
  br i1 %.not.i, label %6, label %14

6:                                                ; preds = %2
  %7 = load ptr, ptr %0, align 8, !tbaa !3
  %8 = getelementptr i8, ptr %7, i64 -24
  %9 = load i64, ptr %8, align 8
  %10 = getelementptr inbounds i8, ptr %0, i64 %9
  %11 = getelementptr inbounds nuw i8, ptr %10, i64 32
  %12 = load i32, ptr %11, align 8, !tbaa !16
  %13 = or i32 %12, 1
  tail call void @_ZNSt9basic_iosIcSt11char_traitsIcEE5clearESt12_Ios_Iostate(ptr noundef nonnull align 8 dereferenceable(264) %10, i32 noundef %13) #7
  br label %_ZStlsISt11char_traitsIcEERSt13basic_ostreamIcT_ES5_PKc.exit

14:                                               ; preds = %2
  %15 = tail call noundef i64 @strlen(ptr noundef nonnull dereferenceable(1) %5) #7
  %16 = tail call noundef nonnull align 8 dereferenceable(8) ptr @_ZSt16__ostream_insertIcSt11char_traitsIcEERSt13basic_ostreamIT_T0_ES6_PKS3_l(ptr noundef nonnull align 8 dereferenceable(8) %0, ptr noundef nonnull %5, i64 noundef %15) #7
  br label %_ZStlsISt11char_traitsIcEERSt13basic_ostreamIcT_ES5_PKc.exit

_ZStlsISt11char_traitsIcEERSt13basic_ostreamIcT_ES5_PKc.exit: ; preds = %6, %14
  %17 = tail call noundef nonnull align 8 dereferenceable(8) ptr @_ZSt16__ostream_insertIcSt11char_traitsIcEERSt13basic_ostreamIT_T0_ES6_PKS3_l(ptr noundef nonnull align 8 dereferenceable(8) %0, ptr noundef nonnull @.str, i64 noundef 1) #7
  %18 = load ptr, ptr %0, align 8, !tbaa !3
  %19 = getelementptr i8, ptr %18, i64 -24
  %20 = load i64, ptr %19, align 8
  %21 = getelementptr inbounds i8, ptr %0, i64 %20
  %22 = getelementptr inbounds nuw i8, ptr %21, i64 24
  %23 = load i32, ptr %22, align 8, !tbaa !27
  %24 = and i32 %23, -75
  %25 = or disjoint i32 %24, 8
  store i32 %25, ptr %22, align 4, !tbaa !28
  %26 = load i64, ptr %19, align 8
  %27 = getelementptr inbounds i8, ptr %0, i64 %26
  %28 = getelementptr inbounds nuw i8, ptr %27, i64 24
  %29 = load i32, ptr %28, align 8, !tbaa !27
  %30 = or i32 %29, 512
  store i32 %30, ptr %28, align 4, !tbaa !28
  %31 = getelementptr inbounds nuw i8, ptr %1, i64 16
  %32 = load i32, ptr %31, align 8, !tbaa !15
  %33 = zext i32 %32 to i64
  %34 = tail call noundef nonnull align 8 dereferenceable(8) ptr @_ZNSo9_M_insertImEERSoT_(ptr noundef nonnull align 8 dereferenceable(8) %0, i64 noundef %33) #7
  %35 = tail call noundef nonnull align 8 dereferenceable(8) ptr @_ZSt16__ostream_insertIcSt11char_traitsIcEERSt13basic_ostreamIT_T0_ES6_PKS3_l(ptr noundef nonnull align 8 dereferenceable(8) %34, ptr noundef nonnull @.str.1, i64 noundef 2) #7
  %36 = getelementptr inbounds nuw i8, ptr %1, i64 12
  %37 = load i32, ptr %36, align 4, !tbaa !14
  %38 = zext i32 %37 to i64
  %39 = tail call noundef nonnull align 8 dereferenceable(8) ptr @_ZNSo9_M_insertImEERSoT_(ptr noundef nonnull align 8 dereferenceable(8) %34, i64 noundef %38) #7
  %40 = tail call noundef nonnull align 8 dereferenceable(8) ptr @_ZSt16__ostream_insertIcSt11char_traitsIcEERSt13basic_ostreamIT_T0_ES6_PKS3_l(ptr noundef nonnull align 8 dereferenceable(8) %39, ptr noundef nonnull @.str.2, i64 noundef 10) #7
  %41 = getelementptr inbounds nuw i8, ptr %1, i64 10
  %42 = load i16, ptr %41, align 2, !tbaa !13
  %43 = zext i16 %42 to i64
  %44 = tail call noundef nonnull align 8 dereferenceable(8) ptr @_ZNSo9_M_insertImEERSoT_(ptr noundef nonnull align 8 dereferenceable(8) %39, i64 noundef %43) #7
  ret ptr %0
}